; Function Attrs: nounwind uwtable
define i32 @mriStep_GetEstLocalErrors(ptr noundef %0, ptr noundef %1) local_unnamed_addr #0 {
  %3 = alloca ptr, align 8
  call void @llvm.lifetime.start.p0(i64 8, ptr nonnull %3) #5
  %4 = call i32 @mriStep_AccessStepMem(ptr noundef %0, ptr noundef nonnull @__func__.mriStep_GetEstLocalErrors, ptr noundef nonnull %3) #5
  %.not = icmp eq i32 %4, 0
  br i1 %.not, label %5, label %20

5:                                                ; preds = %2
  %6 = getelementptr inbounds nuw i8, ptr %0, i64 768
  %7 = load i32, ptr %6, align 8, !tbaa !76
  %.not8 = icmp eq i32 %7, 0
  br i1 %.not8, label %12, label %8

8:                                                ; preds = %5
  %9 = getelementptr inbounds nuw i8, ptr %0, i64 928
  %10 = load i32, ptr %9, align 8, !tbaa !77
  %11 = icmp eq i32 %10, 0
  br i1 %11, label %20, label %12

12:                                               ; preds = %8, %5
  %13 = load ptr, ptr %3, align 8, !tbaa !8
  %14 = getelementptr inbounds nuw i8, ptr %13, i64 84
  %15 = load i32, ptr %14, align 4, !tbaa !23
  %16 = icmp slt i32 %15, 1
  br i1 %16, label %20, label %17

17:                                               ; preds = %12
  %18 = getelementptr inbounds nuw i8, ptr %0, i64 616
  %19 = load ptr, ptr %18, align 8, !tbaa !78
  call void @N_VScale(double noundef 1.000000e+00, ptr noundef %19, ptr noundef %1) #5
  br label %20

20:                                               ; preds = %8, %12, %2, %17
  %.0 = phi i32 [ 0, %17 ], [ %4, %2 ], [ -48, %12 ], [ -48, %8 ]
  call void @llvm.lifetime.end.p0(i64 8, ptr nonnull %3) #5
  ret i32 %.0
}